; Function Attrs: mustprogress nounwind uwtable
define internal noundef ptr @_ZN12_GLOBAL__N_115ThreadSafeState17getDebugAbbrevDWOEv(ptr noundef nonnull align 8 dereferenceable(480) %0) unnamed_addr #0 align 2 {
  %2 = getelementptr inbounds nuw i8, ptr %0, i64 440
  %3 = tail call noundef i32 @pthread_mutex_lock(ptr noundef nonnull %2) #24
  %.not.i.i.i = icmp eq i32 %3, 0
  br i1 %.not.i.i.i, label %_ZNSt11unique_lockISt15recursive_mutexED2Ev.exit, label %4

4:                                                ; preds = %1
  tail call void @_ZSt20__throw_system_errori(i32 noundef %3) #26
  unreachable

_ZNSt11unique_lockISt15recursive_mutexED2Ev.exit: ; preds = %1
  %5 = tail call noundef ptr @_ZN12_GLOBAL__N_129ThreadUnsafeDWARFContextState17getDebugAbbrevDWOEv(ptr noundef nonnull align 8 dereferenceable(440) %0)
  %6 = tail call noundef i32 @pthread_mutex_unlock(ptr noundef nonnull %2) #24
  ret ptr %5
}